; Function Attrs: mustprogress uwtable
define noundef zeroext i1 @_Z25gmx_ana_indexgrps_extractP15gmx_ana_index_tPNSt7__cxx1112basic_stringIcSt11char_traitsIcESaIcEEEP19gmx_ana_indexgrps_ti(ptr noundef captures(none) initializes((0, 4)) %0, ptr noundef initializes((8, 16)) %1, ptr noundef readonly captures(none) %2, i32 noundef %3) local_unnamed_addr #0 personality ptr @__gxx_personality_v0 {
  %5 = getelementptr inbounds nuw i8, ptr %1, i64 8
  store i64 0, ptr %5, align 8, !tbaa !23
  %6 = load ptr, ptr %1, align 8, !tbaa !18
  store i8 0, ptr %6, align 1, !tbaa !24
  %7 = icmp slt i32 %3, 0
  br i1 %7, label %17, label %8

8:                                                ; preds = %4
  %9 = zext nneg i32 %3 to i64
  %10 = getelementptr inbounds nuw i8, ptr %2, i64 8
  %11 = load ptr, ptr %10, align 8, !tbaa !85
  %12 = load ptr, ptr %2, align 8, !tbaa !70
  %13 = ptrtoint ptr %11 to i64
  %14 = ptrtoint ptr %12 to i64
  %15 = sub i64 %13, %14
  %16 = sdiv exact i64 %15, 24
  %.not = icmp sgt i64 %16, %9
  br i1 %.not, label %18, label %17

17:                                               ; preds = %8, %4
  store i32 0, ptr %0, align 8, !tbaa !73
  br label %_Z18gmx_ana_index_copyP15gmx_ana_index_tS0_b.exit

18:                                               ; preds = %8
  %19 = getelementptr inbounds nuw i8, ptr %2, i64 24
  %20 = load ptr, ptr %19, align 8, !tbaa !86
  %21 = getelementptr inbounds nuw %"class.std::__cxx11::basic_string", ptr %20, i64 %9
  tail call void @_ZNSt7__cxx1112basic_stringIcSt11char_traitsIcESaIcEE9_M_assignERKS4_(ptr noundef nonnull align 8 dereferenceable(32) %1, ptr noundef nonnull align 8 dereferenceable(32) %21)
  %22 = load ptr, ptr %2, align 8, !tbaa !70
  %23 = getelementptr inbounds nuw %struct.gmx_ana_index_t, ptr %22, i64 %9
  %24 = load i32, ptr %23, align 8, !tbaa !73
  store i32 %24, ptr %0, align 8, !tbaa !73
  %25 = getelementptr inbounds nuw i8, ptr %0, i64 8
  %26 = sext i32 %24 to i64
  %27 = tail call noundef ptr @_Z11save_callocPKcS0_imm(ptr noundef nonnull @.str.12, ptr noundef nonnull @.str.3, i32 noundef 365, i64 noundef range(i64 -2147483648, 2147483648) %26, i64 noundef 4)
  store ptr %27, ptr %25, align 8, !tbaa !30
  %28 = load i32, ptr %0, align 8, !tbaa !73
  %29 = getelementptr inbounds nuw i8, ptr %0, i64 16
  store i32 %28, ptr %29, align 8, !tbaa !75
  %30 = icmp sgt i32 %28, 0
  br i1 %30, label %31, label %_Z18gmx_ana_index_copyP15gmx_ana_index_tS0_b.exit

31:                                               ; preds = %18
  %32 = getelementptr inbounds nuw i8, ptr %23, i64 8
  %33 = load ptr, ptr %32, align 8, !tbaa !108
  %34 = zext nneg i32 %28 to i64
  %35 = shl nuw nsw i64 %34, 2
  tail call void @llvm.memcpy.p0.p0.i64(ptr align 4 %27, ptr align 4 %33, i64 %35, i1 false)
  br label %_Z18gmx_ana_index_copyP15gmx_ana_index_tS0_b.exit

_Z18gmx_ana_index_copyP15gmx_ana_index_tS0_b.exit: ; preds = %31, %18, %17
  %.0 = phi i1 [ false, %17 ], [ true, %18 ], [ true, %31 ]
  ret i1 %.0
}